; ModuleID = 'source-C-CXX/27/833.c'
source_filename = "source-C-CXX/27/833.c"
target datalayout = "e-m:e-p270:32:32-p271:32:32-p272:64:64-i64:64-f80:128-n8:16:32:64-S128"
target triple = "x86_64-pc-linux-gnu"

@.str = private unnamed_addr constant [3 x i8] c"%d\00", align 1
@.str.1 = private unnamed_addr constant [4 x i8] c",%d\00", align 1

; Function Attrs: nounwind sspstrong uwtable
define dso_local i32 @main() local_unnamed_addr #0 {
  %1 = alloca [1000 x i8], align 16
  %2 = alloca [300 x i32], align 16
  %3 = alloca [300 x i32], align 16
  %4 = getelementptr inbounds [1000 x i8], [1000 x i8]* %1, i64 0, i64 0
  call void @llvm.lifetime.start.p0i8(i64 1000, i8* nonnull %4) #5
  %5 = bitcast [300 x i32]* %2 to i8*
  call void @llvm.lifetime.start.p0i8(i64 1200, i8* nonnull %5) #5
  %6 = bitcast [300 x i32]* %3 to i8*
  call void @llvm.lifetime.start.p0i8(i64 1200, i8* nonnull %6) #5
  %7 = call i32 (i8*, ...) bitcast (i32 (...)* @gets to i32 (i8*, ...)*)(i8* nonnull %4) #5
  %8 = call i64 @strlen(i8* noundef nonnull %4) #6
  %9 = trunc i64 %8 to i32
  %10 = getelementptr inbounds [300 x i32], [300 x i32]* %2, i64 0, i64 0
  store i32 -1, i32* %10, align 16, !tbaa !5
  %11 = icmp sgt i32 %9, 0
  br i1 %11, label %14, label %12

12:                                               ; preds = %0
  %13 = call i32 (i8*, ...) @printf(i8* nonnull dereferenceable(1) getelementptr inbounds ([3 x i8], [3 x i8]* @.str, i64 0, i64 0), i32 undef)
  br label %62

14:                                               ; preds = %0
  %15 = and i64 %8, 4294967295
  br label %16

16:                                               ; preds = %14, %39
  %17 = phi i64 [ 0, %14 ], [ %23, %39 ]
  %18 = phi i32 [ 0, %14 ], [ %41, %39 ]
  %19 = phi i32 [ 1, %14 ], [ %40, %39 ]
  %20 = getelementptr inbounds [1000 x i8], [1000 x i8]* %1, i64 0, i64 %17
  %21 = load i8, i8* %20, align 1, !tbaa !9
  %22 = icmp eq i8 %21, 32
  %23 = add nuw nsw i64 %17, 1
  %24 = getelementptr inbounds [1000 x i8], [1000 x i8]* %1, i64 0, i64 %23
  %25 = load i8, i8* %24, align 1, !tbaa !9
  br i1 %22, label %26, label %33

26:                                               ; preds = %16
  %27 = icmp eq i8 %25, 32
  br i1 %27, label %39, label %28

28:                                               ; preds = %26
  %29 = sext i32 %19 to i64
  %30 = getelementptr inbounds [300 x i32], [300 x i32]* %2, i64 0, i64 %29
  %31 = trunc i64 %17 to i32
  store i32 %31, i32* %30, align 4, !tbaa !5
  %32 = add nsw i32 %19, 1
  br label %39

33:                                               ; preds = %16
  switch i8 %25, label %39 [
    i8 32, label %34
    i8 0, label %34
  ]

34:                                               ; preds = %33, %33
  %35 = sext i32 %18 to i64
  %36 = getelementptr inbounds [300 x i32], [300 x i32]* %3, i64 0, i64 %35
  %37 = trunc i64 %17 to i32
  store i32 %37, i32* %36, align 4, !tbaa !5
  %38 = add nsw i32 %18, 1
  br label %39

39:                                               ; preds = %26, %28, %33, %34
  %40 = phi i32 [ %19, %26 ], [ %32, %28 ], [ %19, %33 ], [ %19, %34 ]
  %41 = phi i32 [ %18, %26 ], [ %18, %28 ], [ %18, %33 ], [ %38, %34 ]
  %42 = icmp eq i64 %23, %15
  br i1 %42, label %43, label %16, !llvm.loop !10

43:                                               ; preds = %39
  %44 = getelementptr inbounds [300 x i32], [300 x i32]* %3, i64 0, i64 0
  %45 = load i32, i32* %44, align 16, !tbaa !5
  %46 = load i32, i32* %10, align 16, !tbaa !5
  %47 = sub nsw i32 %45, %46
  %48 = call i32 (i8*, ...) @printf(i8* nonnull dereferenceable(1) getelementptr inbounds ([3 x i8], [3 x i8]* @.str, i64 0, i64 0), i32 %47)
  %49 = icmp sgt i32 %40, 1
  br i1 %49, label %50, label %62

50:                                               ; preds = %43
  %51 = zext i32 %40 to i64
  br label %52

52:                                               ; preds = %50, %52
  %53 = phi i64 [ 1, %50 ], [ %60, %52 ]
  %54 = getelementptr inbounds [300 x i32], [300 x i32]* %3, i64 0, i64 %53
  %55 = load i32, i32* %54, align 4, !tbaa !5
  %56 = getelementptr inbounds [300 x i32], [300 x i32]* %2, i64 0, i64 %53
  %57 = load i32, i32* %56, align 4, !tbaa !5
  %58 = sub nsw i32 %55, %57
  %59 = call i32 (i8*, ...) @printf(i8* nonnull dereferenceable(1) getelementptr inbounds ([4 x i8], [4 x i8]* @.str.1, i64 0, i64 0), i32 %58)
  %60 = add nuw nsw i64 %53, 1
  %61 = icmp eq i64 %60, %51
  br i1 %61, label %62, label %52, !llvm.loop !12

62:                                               ; preds = %52, %12, %43
  call void @llvm.lifetime.end.p0i8(i64 1200, i8* nonnull %6) #5
  call void @llvm.lifetime.end.p0i8(i64 1200, i8* nonnull %5) #5
  call void @llvm.lifetime.end.p0i8(i64 1000, i8* nonnull %4) #5
  ret i32 0
}

; Function Attrs: argmemonly mustprogress nofree nosync nounwind willreturn
declare void @llvm.lifetime.start.p0i8(i64 immarg, i8* nocapture) #1

declare i32 @gets(...) local_unnamed_addr #2

; Function Attrs: argmemonly mustprogress nofree nounwind readonly willreturn
declare i64 @strlen(i8* nocapture) local_unnamed_addr #3

; Function Attrs: nofree nounwind
declare noundef i32 @printf(i8* nocapture noundef readonly, ...) local_unnamed_addr #4

; Function Attrs: argmemonly mustprogress nofree nosync nounwind willreturn
declare void @llvm.lifetime.end.p0i8(i64 immarg, i8* nocapture) #1


!llvm.module.flags = !{!0, !1, !2, !3}
!llvm.ident = !{!4}

!0 = !{i32 1, !"wchar_size", i32 4}
!1 = !{i32 7, !"PIC Level", i32 2}
!2 = !{i32 7, !"PIE Level", i32 2}
!3 = !{i32 7, !"uwtable", i32 1}
!4 = !{!"clang version 13.0.0"}
!5 = !{!6, !6, i64 0}
!6 = !{!"int", !7, i64 0}
!7 = !{!"omnipotent char", !8, i64 0}
!8 = !{!"Simple C/C++ TBAA"}
!9 = !{!7, !7, i64 0}
!10 = distinct !{!10, !11}
!11 = !{!"llvm.loop.mustprogress"}
!12 = distinct !{!12, !11}
